(dp1
S'feature_dim'
p2
I128
sS'lstm_layer'
p3
I1
sS'lstm_size'
p4
I128
sS'save_every_n'
p5
I200
sS'test_data_path'
p6
S'../predict_training_corpus/clusterTrajectory_100m_5minutes_50eps_5minPts_uniq_3numseqs_test.txt'
p7
sS'batch_size'
p8
I5
sS'num_steps'
p9
I3
sS'epochs'
p10
I70
sS'embedding_path'
p11
S'../word2vec/variable/embedding.pkl'
p12
sS'train_data_path'
p13
S'../predict_training_corpus/clusterTrajectory_100m_5minutes_50eps_5minPts_uniq_3numseqs_train.txt'
p14
sS'classes'
p15
I937
sS'dbscanner_path'
p16
S'../utils/dbscaner_100m_5minutes_50eps_5minPts.pkl'
p17
sS'is_training'
p18
I01
sS'save_dir'
p19
S'./save_3numsteps'
p20
sS'lr'
p21
F0.001
sS'weight_decay'
p22
F1.0000000000000001e-05
sS'keep_prob'
p23
F0.5
s.