(dp1
S'vocab_size'
p2
I937
sS'corpus_path'
p3
S'../vector_traing_corpus/clusterTrajectory_100m_5minutes_50eps_5minPts_uniq_2windows.txt'
p4
sS'neg_sample_size'
p5
I5
sS'embed_size'
p6
I128
sS'min_frequency'
p7
I1
sS'min_lr'
p8
F0.0050000000000000001
sS'save_every_n'
p9
I200
sS'epoches'
p10
I70
sS'batch_size'
p11
I1
sS'lr'
p12
F0.050000000000000003
sS'train_data_path'
p13
g4
sS'dbscanner_path'
p14
S'../utils/dbscaner_100m_5minutes_50eps_5minPts.pkl'
p15
sS'save_dir'
p16
S'./save_windowns5'
p17
sS'alpha'
p18
F0.75
sS'table_size'
p19
I1000
sS'sampling'
p20
I00
s.